; Function Attrs: nounwind uwtable
define dso_local noundef ptr @ExecPrepareExpr(ptr noundef %0, ptr noundef readonly captures(none) %1) local_unnamed_addr #0 {
  %3 = getelementptr inbounds nuw i8, ptr %1, i64 192
  %4 = load ptr, ptr %3, align 8
  %5 = load ptr, ptr @CurrentMemoryContext, align 8
  store ptr %4, ptr @CurrentMemoryContext, align 8
  %6 = tail call ptr @expression_planner(ptr noundef %0) #10
  %7 = tail call ptr @ExecInitExpr(ptr noundef %6, ptr noundef null)
  store ptr %5, ptr @CurrentMemoryContext, align 8
  ret ptr %7
}